; Function Attrs: mustprogress uwtable
define void @_ZN10open_spiel12FormatDoubleB5cxx11Ed(ptr dead_on_unwind noalias writable sret(%"class.std::__cxx11::basic_string") align 8 %0, double noundef %1) local_unnamed_addr #4 personality ptr @__gxx_personality_v0 {
_ZN4absl7debian219str_format_internal18FormatSpecTemplateIJLNS0_23FormatConversionCharSetE130560EEEC2EUa9enable_ifIXclL_ZNS1_15ValidFormatImplIJLS3_130560EEEEbNS0_11string_viewEEfL0p_EEEPKc.exit:
  %2 = alloca [1 x %"class.absl::debian2::str_format_internal::FormatArgImpl"], align 8
  %3 = alloca %"class.absl::debian2::AlphaNum", align 8
  call void @llvm.lifetime.start.p0(i64 16, ptr nonnull %2)
  %4 = bitcast double %1 to i64
  %5 = inttoptr i64 %4 to ptr
  store ptr %5, ptr %2, align 8, !noalias !8
  %6 = getelementptr inbounds nuw i8, ptr %2, i64 8
  store ptr @_ZN4absl7debian219str_format_internal13FormatArgImpl8DispatchIdEEbNS2_4DataENS1_24FormatConversionSpecImplEPv, ptr %6, align 8, !noalias !8
  call void @_ZN4absl7debian219str_format_internal10FormatPackB5cxx11ENS1_21UntypedFormatSpecImplENS0_4SpanIKNS1_13FormatArgImplEEE(ptr dead_on_unwind writable sret(%"class.std::__cxx11::basic_string") align 8 %0, ptr nonnull @.str.22, i64 5, ptr nonnull %2, i64 1)
  call void @llvm.lifetime.end.p0(i64 16, ptr nonnull %2)
  %7 = call noundef i64 @_ZNKSt7__cxx1112basic_stringIcSt11char_traitsIcESaIcEE4findEcm(ptr noundef nonnull align 8 dereferenceable(32) %0, i8 noundef signext 46, i64 noundef 0) #21
  %8 = call noundef i64 @_ZNKSt7__cxx1112basic_stringIcSt11char_traitsIcESaIcEE4findEcm(ptr noundef nonnull align 8 dereferenceable(32) %0, i8 noundef signext 46, i64 noundef 0) #21
  %9 = icmp eq i64 %8, -1
  br i1 %9, label %13, label %.preheader

.preheader:                                       ; preds = %_ZN4absl7debian219str_format_internal18FormatSpecTemplateIJLNS0_23FormatConversionCharSetE130560EEEC2EUa9enable_ifIXclL_ZNS1_15ValidFormatImplIJLS3_130560EEEEbNS0_11string_viewEEfL0p_EEEPKc.exit
  %10 = call noundef i64 @_ZNKSt7__cxx1112basic_stringIcSt11char_traitsIcESaIcEE6lengthEv(ptr noundef nonnull align 8 dereferenceable(32) %0) #21
  %11 = add i64 %7, 2
  %12 = icmp ugt i64 %10, %11
  br i1 %12, label %.lr.ph, label %.critedge

13:                                               ; preds = %_ZN4absl7debian219str_format_internal18FormatSpecTemplateIJLNS0_23FormatConversionCharSetE130560EEEC2EUa9enable_ifIXclL_ZNS1_15ValidFormatImplIJLS3_130560EEEEbNS0_11string_viewEEfL0p_EEEPKc.exit
  store ptr @.str.23, ptr %3, align 8
  %14 = getelementptr inbounds nuw i8, ptr %3, i64 8
  store i64 2, ptr %14, align 8
  invoke void @_ZN4absl7debian29StrAppendEPNSt7__cxx1112basic_stringIcSt11char_traitsIcESaIcEEERKNS0_8AlphaNumE(ptr noundef nonnull %0, ptr noundef nonnull align 8 dereferenceable(48) %3)
          to label %.critedge unwind label %15

15:                                               ; preds = %13
  %16 = landingpad { ptr, i32 }
          cleanup
  call void @_ZNSt7__cxx1112basic_stringIcSt11char_traitsIcESaIcEED1Ev(ptr noundef nonnull align 8 dereferenceable(32) %0) #21
  resume { ptr, i32 } %16

.lr.ph:                                           ; preds = %.preheader, %20
  %17 = call noundef nonnull align 1 dereferenceable(1) ptr @_ZNSt7__cxx1112basic_stringIcSt11char_traitsIcESaIcEE4backEv(ptr noundef nonnull align 8 dereferenceable(32) %0) #21
  %18 = load i8, ptr %17, align 1
  %19 = icmp eq i8 %18, 48
  br i1 %19, label %20, label %.critedge

20:                                               ; preds = %.lr.ph
  call void @_ZNSt7__cxx1112basic_stringIcSt11char_traitsIcESaIcEE8pop_backEv(ptr noundef nonnull align 8 dereferenceable(32) %0) #21
  %21 = call noundef i64 @_ZNKSt7__cxx1112basic_stringIcSt11char_traitsIcESaIcEE6lengthEv(ptr noundef nonnull align 8 dereferenceable(32) %0) #21
  %22 = icmp ugt i64 %21, %11
  br i1 %22, label %.lr.ph, label %.critedge, !llvm.loop !11

.critedge:                                        ; preds = %.lr.ph, %20, %.preheader, %13
  ret void
}